; Function Attrs: nounwind uwtable
define internal i32 @rsa_alt_decrypt_wrap(ptr noundef readonly captures(none) %0, ptr noundef %1, i64 noundef %2, ptr noundef %3, ptr noundef %4, i64 noundef %5, ptr readnone captures(none) %6, ptr readnone captures(none) %7) #0 {
  %9 = getelementptr inbounds nuw i8, ptr %0, i64 8
  %10 = load ptr, ptr %9, align 8, !tbaa !3
  %11 = getelementptr inbounds nuw i8, ptr %10, i64 24
  %12 = load ptr, ptr %11, align 8, !tbaa !25
  %13 = load ptr, ptr %10, align 8, !tbaa !27
  %14 = tail call i64 %12(ptr noundef %13) #10
  %.not = icmp eq i64 %2, %14
  br i1 %.not, label %15, label %20

15:                                               ; preds = %8
  %16 = getelementptr inbounds nuw i8, ptr %10, i64 8
  %17 = load ptr, ptr %16, align 8, !tbaa !29
  %18 = load ptr, ptr %10, align 8, !tbaa !27
  %19 = tail call i32 %17(ptr noundef %18, ptr noundef %4, ptr noundef %1, ptr noundef %3, i64 noundef %5) #10
  br label %20

20:                                               ; preds = %8, %15
  %.0 = phi i32 [ %19, %15 ], [ -16512, %8 ]
  ret i32 %.0
}